target datalayout = "e-m:e-p270:32:32-p271:32:32-p272:64:64-i64:64-i128:128-f80:128-n8:16:32:64-S128"
target triple = "x86_64-unknown-linux-gnu"

%struct.ObjectClass = type { ptr, ptr, [4 x ptr], [4 x ptr], ptr, ptr }
%struct.IDEDeviceClass = type { %struct.DeviceClass, ptr }
%struct.DeviceClass = type { %struct.ObjectClass, [1 x i64], ptr, ptr, ptr, i8, i8, ptr, ptr, ptr, ptr, ptr }

@.str.4 = private unnamed_addr constant [6 x i8] c"drive\00", align 1
@.str.6 = private unnamed_addr constant [101 x i8] c"/home/dtcxzyw/WorkSpace/Projects/compilers/llvm-opt-benchmark/bench/qemu/qemu/include/hw/qdev-core.h\00", align 1
@.str.8 = private unnamed_addr constant [104 x i8] c"/home/dtcxzyw/WorkSpace/Projects/compilers/llvm-opt-benchmark/bench/qemu/qemu/include/hw/ide/internal.h\00", align 1
@.str.9 = private unnamed_addr constant [11 x i8] c"ide-device\00", align 1
@.str.11 = private unnamed_addr constant [7 x i8] c"device\00", align 1
@__func__.DEVICE_CLASS = private unnamed_addr constant [13 x i8] c"DEVICE_CLASS\00", align 1
@__func__.IDE_DEVICE_CLASS = private unnamed_addr constant [17 x i8] c"IDE_DEVICE_CLASS\00", align 1
@.str.45 = private unnamed_addr constant [26 x i8] c"virtual CompactFlash card\00", align 1

; Function Attrs: nounwind sspstrong uwtable
define internal ptr @IDE_DEVICE_CLASS(ptr noundef %klass) #0 {
entry:
  %klass.addr = alloca ptr, align 8
  store ptr %klass, ptr %klass.addr, align 8
  %0 = load ptr, ptr %klass.addr, align 8
  %call = call ptr @object_class_dynamic_cast_assert(ptr noundef %0, ptr noundef @.str.9, ptr noundef @.str.8, i32 noundef 506, ptr noundef @__func__.IDE_DEVICE_CLASS)
  ret ptr %call
}

; Function Attrs: nounwind sspstrong uwtable
define internal ptr @DEVICE_CLASS(ptr noundef %klass) #0 {
entry:
  %klass.addr = alloca ptr, align 8
  store ptr %klass, ptr %klass.addr, align 8
  %0 = load ptr, ptr %klass.addr, align 8
  %call = call ptr @object_class_dynamic_cast_assert(ptr noundef %0, ptr noundef @.str.11, ptr noundef @.str.6, i32 noundef 77, ptr noundef @__func__.DEVICE_CLASS)
  ret ptr %call
}

; Function Attrs: nounwind sspstrong uwtable
define internal void @ide_cf_class_init(ptr noundef %klass, ptr noundef %data) #0 {
entry:
  %klass.addr = alloca ptr, align 8
  %data.addr = alloca ptr, align 8
  %dc = alloca ptr, align 8
  %k = alloca ptr, align 8
  store ptr %klass, ptr %klass.addr, align 8
  store ptr %data, ptr %data.addr, align 8
  %0 = load ptr, ptr %klass.addr, align 8
  %call = call ptr @DEVICE_CLASS(ptr noundef %0)
  store ptr %call, ptr %dc, align 8
  %1 = load ptr, ptr %klass.addr, align 8
  %call1 = call ptr @IDE_DEVICE_CLASS(ptr noundef %1)
  store ptr %call1, ptr %k, align 8
  %2 = load ptr, ptr %k, align 8
  %realize = getelementptr inbounds %struct.IDEDeviceClass, ptr %2, i32 0, i32 1
  store ptr @ide_cf_realize, ptr %realize, align 8
  %3 = load ptr, ptr %dc, align 8
  %fw_name = getelementptr inbounds %struct.DeviceClass, ptr %3, i32 0, i32 2
  store ptr @.str.4, ptr %fw_name, align 8
  %4 = load ptr, ptr %dc, align 8
  %desc = getelementptr inbounds %struct.DeviceClass, ptr %4, i32 0, i32 3
  store ptr @.str.45, ptr %desc, align 8
  %5 = load ptr, ptr %dc, align 8
  call void @device_class_set_props(ptr noundef %5, ptr noundef @ide_cf_properties)
  ret void
}